; Function Attrs: mustprogress nounwind uwtable
define hidden void @_ZN16BCEscapeAnalyzer11do_analysisEv(ptr noundef nonnull align 8 dereferenceable(196) %0) local_unnamed_addr #0 align 2 {
  %2 = tail call align 8 ptr @llvm.threadlocal.address.p0(ptr align 8 @_ZN6Thread12_thr_currentE)
  %3 = load ptr, ptr %2, align 8
  %4 = getelementptr inbounds i8, ptr %3, i64 1808
  %5 = load ptr, ptr %4, align 8
  %6 = load ptr, ptr %5, align 8
  %7 = getelementptr inbounds i8, ptr %0, i64 16
  %8 = load ptr, ptr %7, align 8
  %9 = tail call noundef ptr @_ZN8ciMethod17get_method_blocksEv(ptr noundef nonnull align 8 dereferenceable(160) %8) #12
  %10 = getelementptr inbounds i8, ptr %0, i64 176
  store ptr %9, ptr %10, align 8
  tail call void @_ZN16BCEscapeAnalyzer14iterate_blocksEP5Arena(ptr noundef nonnull align 8 dereferenceable(196) %0, ptr noundef %6)
  ret void
}